target datalayout = "e-m:e-p270:32:32-p271:32:32-p272:64:64-i64:64-i128:128-f80:128-n8:16:32:64-S128"
target triple = "x86_64-pc-linux-gnu"

%struct.VMAFMotionData = type { [5 x i16], i32, i32, i64, [2 x ptr], ptr, double, i64, %struct.VMAFMotionDSPContext }
%struct.VMAFMotionDSPContext = type { ptr, ptr, ptr }

; Function Attrs: nounwind uwtable
define double @ff_vmafmotion_uninit(ptr noundef %0) #0 {
  %2 = alloca ptr, align 8
  store ptr %0, ptr %2, align 8, !tbaa !4
  %3 = load ptr, ptr %2, align 8, !tbaa !4
  %4 = getelementptr inbounds nuw %struct.VMAFMotionData, ptr %3, i32 0, i32 4
  %5 = getelementptr inbounds [2 x ptr], ptr %4, i64 0, i64 0
  %6 = load ptr, ptr %5, align 8, !tbaa !26
  call void @av_free(ptr noundef %6)
  %7 = load ptr, ptr %2, align 8, !tbaa !4
  %8 = getelementptr inbounds nuw %struct.VMAFMotionData, ptr %7, i32 0, i32 4
  %9 = getelementptr inbounds [2 x ptr], ptr %8, i64 0, i64 1
  %10 = load ptr, ptr %9, align 8, !tbaa !26
  call void @av_free(ptr noundef %10)
  %11 = load ptr, ptr %2, align 8, !tbaa !4
  %12 = getelementptr inbounds nuw %struct.VMAFMotionData, ptr %11, i32 0, i32 5
  %13 = load ptr, ptr %12, align 8, !tbaa !20
  call void @av_free(ptr noundef %13)
  %14 = load ptr, ptr %2, align 8, !tbaa !4
  %15 = getelementptr inbounds nuw %struct.VMAFMotionData, ptr %14, i32 0, i32 7
  %16 = load i64, ptr %15, align 8, !tbaa !27
  %17 = icmp ugt i64 %16, 0
  br i1 %17, label %18, label %27

18:                                               ; preds = %1
  %19 = load ptr, ptr %2, align 8, !tbaa !4
  %20 = getelementptr inbounds nuw %struct.VMAFMotionData, ptr %19, i32 0, i32 6
  %21 = load double, ptr %20, align 8, !tbaa !31
  %22 = load ptr, ptr %2, align 8, !tbaa !4
  %23 = getelementptr inbounds nuw %struct.VMAFMotionData, ptr %22, i32 0, i32 7
  %24 = load i64, ptr %23, align 8, !tbaa !27
  %25 = uitofp i64 %24 to double
  %26 = fdiv nsz double %21, %25
  br label %28

27:                                               ; preds = %1
  br label %28

28:                                               ; preds = %27, %18
  %29 = phi nsz double [ %26, %18 ], [ 0.000000e+00, %27 ]
  ret double %29
}