; Function Attrs: nounwind uwtable
define double @ff_vmafmotion_uninit(ptr noundef readonly captures(none) %0) local_unnamed_addr #0 {
  %2 = getelementptr inbounds nuw i8, ptr %0, i64 32
  %3 = load ptr, ptr %2, align 8, !tbaa !22
  tail call void @av_free(ptr noundef %3) #10
  %4 = getelementptr inbounds nuw i8, ptr %0, i64 40
  %5 = load ptr, ptr %4, align 8, !tbaa !22
  tail call void @av_free(ptr noundef %5) #10
  %6 = getelementptr inbounds nuw i8, ptr %0, i64 48
  %7 = load ptr, ptr %6, align 8, !tbaa !16
  tail call void @av_free(ptr noundef %7) #10
  %8 = getelementptr inbounds nuw i8, ptr %0, i64 64
  %9 = load i64, ptr %8, align 8, !tbaa !23
  %.not = icmp eq i64 %9, 0
  br i1 %.not, label %15, label %10

10:                                               ; preds = %1
  %11 = getelementptr inbounds nuw i8, ptr %0, i64 56
  %12 = load double, ptr %11, align 8, !tbaa !25
  %13 = uitofp i64 %9 to double
  %14 = fdiv nsz double %12, %13
  br label %15

15:                                               ; preds = %1, %10
  %16 = phi nsz double [ %14, %10 ], [ 0.000000e+00, %1 ]
  ret double %16
}